; Function Attrs: nounwind uwtable
define noalias noundef ptr @Fra_SmlSimulateReadFile(ptr noundef %0) local_unnamed_addr #6 {
  %2 = tail call noalias ptr @fopen(ptr noundef %0, ptr noundef nonnull @.str.3)
  %3 = icmp eq ptr %2, null
  br i1 %3, label %4, label %6

4:                                                ; preds = %1
  %5 = tail call i32 (ptr, ...) @printf(ptr noundef nonnull dereferenceable(1) @.str.4, ptr noundef %0)
  br label %51

6:                                                ; preds = %1
  %7 = tail call noalias dereferenceable_or_null(16) ptr @malloc(i64 noundef 16) #21
  %8 = getelementptr inbounds nuw i8, ptr %7, i64 4
  store i32 0, ptr %8, align 4, !tbaa !136
  store i32 1000, ptr %7, align 8, !tbaa !138
  %9 = tail call noalias dereferenceable_or_null(1000) ptr @malloc(i64 noundef 1000) #21
  %10 = getelementptr inbounds nuw i8, ptr %7, i64 8
  store ptr %9, ptr %10, align 8, !tbaa !139
  %11 = tail call i32 @fgetc(ptr noundef nonnull %2)
  %.not28 = icmp eq i32 %11, -1
  br i1 %.not28, label %.loopexit, label %.lr.ph

.lr.ph:                                           ; preds = %6, %48
  %12 = phi i32 [ %49, %48 ], [ %11, %6 ]
  %13 = and i32 %12, -2
  %or.cond = icmp eq i32 %13, 48
  br i1 %or.cond, label %14, label %43

14:                                               ; preds = %.lr.ph
  %15 = trunc nuw i32 %12 to i8
  %16 = add nsw i8 %15, -48
  %17 = load i32, ptr %8, align 4, !tbaa !136
  %18 = load i32, ptr %7, align 8, !tbaa !138
  %19 = icmp eq i32 %17, %18
  br i1 %19, label %20, label %.Vec_StrGrow.exit10_crit_edge.i

.Vec_StrGrow.exit10_crit_edge.i:                  ; preds = %14
  %.pre.i = load ptr, ptr %10, align 8, !tbaa !139
  br label %Vec_StrPush.exit

20:                                               ; preds = %14
  %21 = icmp slt i32 %17, 16
  br i1 %21, label %22, label %29

22:                                               ; preds = %20
  %23 = load ptr, ptr %10, align 8, !tbaa !139
  %.not9.i.i = icmp eq ptr %23, null
  br i1 %.not9.i.i, label %26, label %24

24:                                               ; preds = %22
  %25 = tail call dereferenceable_or_null(16) ptr @realloc(ptr noundef nonnull %23, i64 noundef 16) #20
  br label %Vec_StrGrow.exit.i

26:                                               ; preds = %22
  %27 = tail call noalias dereferenceable_or_null(16) ptr @malloc(i64 noundef 16) #21
  br label %Vec_StrGrow.exit.i

Vec_StrGrow.exit.i:                               ; preds = %26, %24
  %28 = phi ptr [ %25, %24 ], [ %27, %26 ]
  store ptr %28, ptr %10, align 8, !tbaa !139
  store i32 16, ptr %7, align 8, !tbaa !138
  br label %Vec_StrPush.exit

29:                                               ; preds = %20
  %30 = shl nuw nsw i32 %17, 1
  %31 = load ptr, ptr %10, align 8, !tbaa !139
  %.not9.i9.i = icmp eq ptr %31, null
  %32 = zext nneg i32 %30 to i64
  br i1 %.not9.i9.i, label %35, label %33

33:                                               ; preds = %29
  %34 = tail call ptr @realloc(ptr noundef nonnull %31, i64 noundef %32) #20
  br label %37

35:                                               ; preds = %29
  %36 = tail call noalias ptr @malloc(i64 noundef %32) #21
  br label %37

37:                                               ; preds = %35, %33
  %38 = phi ptr [ %34, %33 ], [ %36, %35 ]
  store ptr %38, ptr %10, align 8, !tbaa !139
  store i32 %30, ptr %7, align 8, !tbaa !138
  br label %Vec_StrPush.exit

Vec_StrPush.exit:                                 ; preds = %.Vec_StrGrow.exit10_crit_edge.i, %Vec_StrGrow.exit.i, %37
  %39 = phi ptr [ %.pre.i, %.Vec_StrGrow.exit10_crit_edge.i ], [ %38, %37 ], [ %28, %Vec_StrGrow.exit.i ]
  %40 = add nsw i32 %17, 1
  store i32 %40, ptr %8, align 4, !tbaa !136
  %41 = sext i32 %17 to i64
  %42 = getelementptr inbounds i8, ptr %39, i64 %41
  store i8 %16, ptr %42, align 1, !tbaa !3
  br label %48

43:                                               ; preds = %.lr.ph
  switch i32 %12, label %44 [
    i32 32, label %48
    i32 13, label %48
    i32 10, label %48
    i32 9, label %48
  ]

44:                                               ; preds = %43
  %sext = shl i32 %12, 24
  %45 = ashr exact i32 %sext, 24
  %46 = tail call i32 (ptr, ...) @printf(ptr noundef nonnull dereferenceable(1) @.str.5, ptr noundef %0, i32 noundef %45)
  %47 = load ptr, ptr %10, align 8, !tbaa !139
  %.not.i = icmp eq ptr %47, null
  br i1 %.not.i, label %Vec_StrFreeP.exit, label %.thread.i

.thread.i:                                        ; preds = %44
  tail call void @free(ptr noundef nonnull %47) #22
  br label %Vec_StrFreeP.exit

Vec_StrFreeP.exit:                                ; preds = %44, %.thread.i
  tail call void @free(ptr noundef nonnull %7) #22
  br label %.loopexit

48:                                               ; preds = %43, %43, %43, %43, %Vec_StrPush.exit
  %49 = tail call i32 @fgetc(ptr noundef nonnull %2)
  %.not = icmp eq i32 %49, -1
  br i1 %.not, label %.loopexit, label %.lr.ph, !llvm.loop !140

.loopexit:                                        ; preds = %48, %6, %Vec_StrFreeP.exit
  %.026 = phi ptr [ null, %Vec_StrFreeP.exit ], [ %7, %6 ], [ %7, %48 ]
  %50 = tail call i32 @fclose(ptr noundef nonnull %2)
  br label %51

51:                                               ; preds = %.loopexit, %4
  %.0 = phi ptr [ null, %4 ], [ %.026, %.loopexit ]
  ret ptr %.0
}